target datalayout = "e-m:e-p270:32:32-p271:32:32-p272:64:64-i64:64-i128:128-f80:128-n8:16:32:64-S128"
target triple = "x86_64-pc-linux-gnu"

%"class.google::protobuf::io::Tokenizer" = type { %"struct.google::protobuf::io::Tokenizer::Token", %"struct.google::protobuf::io::Tokenizer::Token", ptr, ptr, i8, ptr, i32, i32, i8, i32, i32, ptr, i32, i8, i32, i8, i8, i8, i8 }
%"struct.google::protobuf::io::Tokenizer::Token" = type <{ i32, [4 x i8], %"class.std::__cxx11::basic_string", i32, i32, i32, [4 x i8] }>
%"class.std::__cxx11::basic_string" = type { %"struct.std::__cxx11::basic_string<char>::_Alloc_hider", i64, %union.anon }
%"struct.std::__cxx11::basic_string<char>::_Alloc_hider" = type { ptr }
%union.anon = type { i64, [8 x i8] }

; Function Attrs: inlinehint mustprogress uwtable
define linkonce_odr hidden noundef zeroext i1 @_ZN6google8protobuf2io9Tokenizer10TryConsumeEc(ptr noundef nonnull align 8 dereferenceable(192) %0, i8 noundef signext %1) #10 comdat align 2 {
  %3 = alloca i1, align 1
  %4 = alloca ptr, align 8
  %5 = alloca i8, align 1
  store ptr %0, ptr %4, align 8, !tbaa !8
  store i8 %1, ptr %5, align 1, !tbaa !53
  %6 = load ptr, ptr %4, align 8
  %7 = getelementptr inbounds nuw %"class.google::protobuf::io::Tokenizer", ptr %6, i32 0, i32 4
  %8 = load i8, ptr %7, align 8, !tbaa !47
  %9 = sext i8 %8 to i32
  %10 = load i8, ptr %5, align 1, !tbaa !53
  %11 = sext i8 %10 to i32
  %12 = icmp eq i32 %9, %11
  br i1 %12, label %13, label %14

13:                                               ; preds = %2
  call void @_ZN6google8protobuf2io9Tokenizer8NextCharEv(ptr noundef nonnull align 8 dereferenceable(192) %6)
  store i1 true, ptr %3, align 1
  br label %15

14:                                               ; preds = %2
  store i1 false, ptr %3, align 1
  br label %15

15:                                               ; preds = %14, %13
  %16 = load i1, ptr %3, align 1
  ret i1 %16
}

; Function Attrs: mustprogress uwtable
define hidden noundef zeroext i1 @_ZN6google8protobuf2io9Tokenizer17TryConsumeNewlineEv(ptr noundef nonnull align 8 dereferenceable(192) %0) #6 align 2 {
  %2 = alloca i1, align 1
  %3 = alloca ptr, align 8
  store ptr %0, ptr %3, align 8, !tbaa !8
  %4 = load ptr, ptr %3, align 8
  %5 = getelementptr inbounds nuw %"class.google::protobuf::io::Tokenizer", ptr %4, i32 0, i32 17
  %6 = load i8, ptr %5, align 2, !tbaa !37, !range !45, !noundef !46
  %7 = trunc i8 %6 to i1
  br i1 %7, label %8, label %12

8:                                                ; preds = %1
  %9 = getelementptr inbounds nuw %"class.google::protobuf::io::Tokenizer", ptr %4, i32 0, i32 18
  %10 = load i8, ptr %9, align 1, !tbaa !38, !range !45, !noundef !46
  %11 = trunc i8 %10 to i1
  br i1 %11, label %13, label %12

12:                                               ; preds = %8, %1
  store i1 false, ptr %2, align 1
  br label %19

13:                                               ; preds = %8
  %14 = call noundef zeroext i1 @_ZN6google8protobuf2io9Tokenizer10TryConsumeEc(ptr noundef nonnull align 8 dereferenceable(192) %4, i8 noundef signext 10)
  br i1 %14, label %15, label %18

15:                                               ; preds = %13
  %16 = getelementptr inbounds nuw %"class.google::protobuf::io::Tokenizer", ptr %4, i32 0, i32 0
  %17 = getelementptr inbounds nuw %"struct.google::protobuf::io::Tokenizer::Token", ptr %16, i32 0, i32 0
  store i32 8, ptr %17, align 8, !tbaa !42
  store i1 true, ptr %2, align 1
  br label %19

18:                                               ; preds = %13
  store i1 false, ptr %2, align 1
  br label %19

19:                                               ; preds = %18, %15, %12
  %20 = load i1, ptr %2, align 1
  ret i1 %20
}