; Function Attrs: mustprogress uwtable
define hidden noundef zeroext i1 @_ZN6google8protobuf2io9Tokenizer17TryConsumeNewlineEv(ptr noundef nonnull align 8 dereferenceable(192) %0) local_unnamed_addr #6 align 2 {
  %2 = getelementptr inbounds nuw i8, ptr %0, i64 190
  %3 = load i8, ptr %2, align 2, !tbaa !32, !range !49, !noundef !50
  %4 = trunc nuw i8 %3 to i1
  br i1 %4, label %5, label %_ZN6google8protobuf2io9Tokenizer10TryConsumeEc.exit

5:                                                ; preds = %1
  %6 = getelementptr inbounds nuw i8, ptr %0, i64 191
  %7 = load i8, ptr %6, align 1, !tbaa !33, !range !49, !noundef !50
  %8 = trunc nuw i8 %7 to i1
  %9 = getelementptr inbounds nuw i8, ptr %0, i64 128
  %10 = load i8, ptr %9, align 8
  %11 = icmp eq i8 %10, 10
  %or.cond = select i1 %8, i1 %11, i1 false
  br i1 %or.cond, label %12, label %_ZN6google8protobuf2io9Tokenizer10TryConsumeEc.exit

12:                                               ; preds = %5
  tail call void @_ZN6google8protobuf2io9Tokenizer8NextCharEv(ptr noundef nonnull align 8 dereferenceable(192) %0)
  store i32 8, ptr %0, align 8, !tbaa !37
  br label %_ZN6google8protobuf2io9Tokenizer10TryConsumeEc.exit

_ZN6google8protobuf2io9Tokenizer10TryConsumeEc.exit: ; preds = %1, %5, %12
  %.0 = phi i1 [ true, %12 ], [ false, %5 ], [ false, %1 ]
  ret i1 %.0
}